target datalayout = "e-m:e-p270:32:32-p271:32:32-p272:64:64-i64:64-i128:128-f80:128-n8:16:32:64-S128"
target triple = "x86_64-pc-linux-gnu"

; Function Attrs: nounwind uwtable
define internal i32 @ERR_isError(i64 noundef %0) #0 {
  %2 = alloca i64, align 8
  store i64 %0, ptr %2, align 8, !tbaa !3
  %3 = load i64, ptr %2, align 8, !tbaa !3
  %4 = icmp ugt i64 %3, -120
  %5 = zext i1 %4 to i32
  ret i32 %5
}

; Function Attrs: nounwind uwtable
define i64 @FSEv06_decompress(ptr noundef %0, i64 noundef %1, ptr noundef %2, i64 noundef %3) #0 {
  %5 = alloca i64, align 8
  %6 = alloca ptr, align 8
  %7 = alloca i64, align 8
  %8 = alloca ptr, align 8
  %9 = alloca i64, align 8
  %10 = alloca ptr, align 8
  %11 = alloca ptr, align 8
  %12 = alloca [256 x i16], align 16
  %13 = alloca [4097 x i32], align 16
  %14 = alloca i32, align 4
  %15 = alloca i32, align 4
  %16 = alloca i32, align 4
  %17 = alloca i64, align 8
  %18 = alloca i64, align 8
  store ptr %0, ptr %6, align 8, !tbaa !12
  store i64 %1, ptr %7, align 8, !tbaa !3
  store ptr %2, ptr %8, align 8, !tbaa !12
  store i64 %3, ptr %9, align 8, !tbaa !3
  call void @llvm.lifetime.start.p0(i64 8, ptr %10) #10
  %19 = load ptr, ptr %8, align 8, !tbaa !12
  store ptr %19, ptr %10, align 8, !tbaa !13
  call void @llvm.lifetime.start.p0(i64 8, ptr %11) #10
  %20 = load ptr, ptr %10, align 8, !tbaa !13
  store ptr %20, ptr %11, align 8, !tbaa !13
  call void @llvm.lifetime.start.p0(i64 512, ptr %12) #10
  call void @llvm.lifetime.start.p0(i64 16388, ptr %13) #10
  call void @llvm.lifetime.start.p0(i64 4, ptr %14) #10
  call void @llvm.lifetime.start.p0(i64 4, ptr %15) #10
  store i32 255, ptr %15, align 4, !tbaa !15
  %21 = load i64, ptr %9, align 8, !tbaa !3
  %22 = icmp ult i64 %21, 2
  br i1 %22, label %23, label %24

23:                                               ; preds = %4
  store i64 -72, ptr %5, align 8
  store i32 1, ptr %16, align 4
  br label %69

24:                                               ; preds = %4
  call void @llvm.lifetime.start.p0(i64 8, ptr %17) #10
  %25 = getelementptr inbounds [256 x i16], ptr %12, i64 0, i64 0
  %26 = load ptr, ptr %10, align 8, !tbaa !13
  %27 = load i64, ptr %9, align 8, !tbaa !3
  %28 = call i64 @FSEv06_readNCount(ptr noundef %25, ptr noundef %15, ptr noundef %14, ptr noundef %26, i64 noundef %27)
  store i64 %28, ptr %17, align 8, !tbaa !3
  %29 = load i64, ptr %17, align 8, !tbaa !3
  %30 = call i32 @ERR_isError(i64 noundef %29)
  %31 = icmp ne i32 %30, 0
  br i1 %31, label %32, label %34

32:                                               ; preds = %24
  %33 = load i64, ptr %17, align 8, !tbaa !3
  store i64 %33, ptr %5, align 8
  store i32 1, ptr %16, align 4
  br label %46

34:                                               ; preds = %24
  %35 = load i64, ptr %17, align 8, !tbaa !3
  %36 = load i64, ptr %9, align 8, !tbaa !3
  %37 = icmp uge i64 %35, %36
  br i1 %37, label %38, label %39

38:                                               ; preds = %34
  store i64 -72, ptr %5, align 8
  store i32 1, ptr %16, align 4
  br label %46

39:                                               ; preds = %34
  %40 = load i64, ptr %17, align 8, !tbaa !3
  %41 = load ptr, ptr %11, align 8, !tbaa !13
  %42 = getelementptr inbounds nuw i8, ptr %41, i64 %40
  store ptr %42, ptr %11, align 8, !tbaa !13
  %43 = load i64, ptr %17, align 8, !tbaa !3
  %44 = load i64, ptr %9, align 8, !tbaa !3
  %45 = sub i64 %44, %43
  store i64 %45, ptr %9, align 8, !tbaa !3
  store i32 0, ptr %16, align 4
  br label %46

46:                                               ; preds = %39, %38, %32
  call void @llvm.lifetime.end.p0(i64 8, ptr %17) #10
  %47 = load i32, ptr %16, align 4
  switch i32 %47, label %69 [
    i32 0, label %48
  ]

48:                                               ; preds = %46
  call void @llvm.lifetime.start.p0(i64 8, ptr %18) #10
  %49 = getelementptr inbounds [4097 x i32], ptr %13, i64 0, i64 0
  %50 = getelementptr inbounds [256 x i16], ptr %12, i64 0, i64 0
  %51 = load i32, ptr %15, align 4, !tbaa !15
  %52 = load i32, ptr %14, align 4, !tbaa !15
  %53 = call i64 @FSEv06_buildDTable(ptr noundef %49, ptr noundef %50, i32 noundef %51, i32 noundef %52)
  store i64 %53, ptr %18, align 8, !tbaa !3
  %54 = load i64, ptr %18, align 8, !tbaa !3
  %55 = call i32 @ERR_isError(i64 noundef %54)
  %56 = icmp ne i32 %55, 0
  br i1 %56, label %57, label %59

57:                                               ; preds = %48
  %58 = load i64, ptr %18, align 8, !tbaa !3
  store i64 %58, ptr %5, align 8
  store i32 1, ptr %16, align 4
  br label %60

59:                                               ; preds = %48
  store i32 0, ptr %16, align 4
  br label %60

60:                                               ; preds = %59, %57
  call void @llvm.lifetime.end.p0(i64 8, ptr %18) #10
  %61 = load i32, ptr %16, align 4
  switch i32 %61, label %69 [
    i32 0, label %62
  ]

62:                                               ; preds = %60
  %63 = load ptr, ptr %6, align 8, !tbaa !12
  %64 = load i64, ptr %7, align 8, !tbaa !3
  %65 = load ptr, ptr %11, align 8, !tbaa !13
  %66 = load i64, ptr %9, align 8, !tbaa !3
  %67 = getelementptr inbounds [4097 x i32], ptr %13, i64 0, i64 0
  %68 = call i64 @FSEv06_decompress_usingDTable(ptr noundef %63, i64 noundef %64, ptr noundef %65, i64 noundef %66, ptr noundef %67)
  store i64 %68, ptr %5, align 8
  store i32 1, ptr %16, align 4
  br label %69

69:                                               ; preds = %62, %60, %46, %23
  call void @llvm.lifetime.end.p0(i64 4, ptr %15) #10
  call void @llvm.lifetime.end.p0(i64 4, ptr %14) #10
  call void @llvm.lifetime.end.p0(i64 16388, ptr %13) #10
  call void @llvm.lifetime.end.p0(i64 512, ptr %12) #10
  call void @llvm.lifetime.end.p0(i64 8, ptr %11) #10
  call void @llvm.lifetime.end.p0(i64 8, ptr %10) #10
  %70 = load i64, ptr %5, align 8
  ret i64 %70
}