; Function Attrs: nofree norecurse nosync nounwind memory(argmem: readwrite) uwtable
define i64 @FSEv06_decompress(ptr noundef %0, i64 noundef %1, ptr noundef %2, i64 noundef %3) local_unnamed_addr #2 {
  %5 = alloca [256 x i16], align 16
  %6 = alloca [4097 x i32], align 16
  %7 = alloca i32, align 4
  %8 = alloca i32, align 4
  call void @llvm.lifetime.start.p0(i64 512, ptr nonnull %5) #28
  call void @llvm.lifetime.start.p0(i64 16388, ptr nonnull %6) #28
  call void @llvm.lifetime.start.p0(i64 4, ptr nonnull %7) #28
  call void @llvm.lifetime.start.p0(i64 4, ptr nonnull %8) #28
  store i32 255, ptr %8, align 4, !tbaa !3
  %9 = icmp ult i64 %3, 2
  br i1 %9, label %.thread, label %10

10:                                               ; preds = %4
  %11 = call i64 @FSEv06_readNCount(ptr noundef nonnull %5, ptr noundef nonnull %8, ptr noundef nonnull %7, ptr noundef %2, i64 noundef %3)
  %12 = icmp ult i64 %11, -119
  br i1 %12, label %13, label %.thread

13:                                               ; preds = %10
  %.not28 = icmp ult i64 %11, %3
  br i1 %.not28, label %14, label %.thread

14:                                               ; preds = %13
  %15 = load i32, ptr %8, align 4, !tbaa !3
  %16 = load i32, ptr %7, align 4, !tbaa !3
  %17 = call i64 @FSEv06_buildDTable(ptr noundef nonnull %6, ptr noundef nonnull %5, i32 noundef %15, i32 noundef %16)
  %18 = icmp ult i64 %17, -119
  br i1 %18, label %19, label %.thread

19:                                               ; preds = %14
  %20 = sub nuw i64 %3, %11
  %21 = getelementptr inbounds nuw i8, ptr %2, i64 %11
  %22 = call i64 @FSEv06_decompress_usingDTable(ptr noundef %0, i64 noundef %1, ptr noundef %21, i64 noundef %20, ptr noundef nonnull %6)
  br label %.thread

.thread:                                          ; preds = %13, %10, %4, %14, %19
  %.0 = phi i64 [ %22, %19 ], [ %17, %14 ], [ -72, %4 ], [ -72, %13 ], [ %11, %10 ]
  call void @llvm.lifetime.end.p0(i64 4, ptr nonnull %8) #28
  call void @llvm.lifetime.end.p0(i64 4, ptr nonnull %7) #28
  call void @llvm.lifetime.end.p0(i64 16388, ptr nonnull %6) #28
  call void @llvm.lifetime.end.p0(i64 512, ptr nonnull %5) #28
  ret i64 %.0
}